; Function Attrs: nounwind uwtable
define hidden range(i32 0, 2) i32 @BN_mod_mul(ptr noundef %0, ptr noundef %1, ptr noundef %2, ptr noundef %3, ptr noundef %4) local_unnamed_addr #0 {
  tail call void @BN_CTX_start(ptr noundef %4) #6
  %6 = tail call ptr @BN_CTX_get(ptr noundef %4) #6
  %7 = icmp eq ptr %6, null
  br i1 %7, label %BN_nnmod.exit.thread25, label %8

8:                                                ; preds = %5
  %9 = icmp eq ptr %1, %2
  br i1 %9, label %10, label %12

10:                                               ; preds = %8
  %11 = tail call i32 @BN_sqr(ptr noundef nonnull %6, ptr noundef %1, ptr noundef %4) #6
  %.not20 = icmp eq i32 %11, 0
  br i1 %.not20, label %BN_nnmod.exit.thread25, label %14

12:                                               ; preds = %8
  %13 = tail call i32 @BN_mul(ptr noundef nonnull %6, ptr noundef %1, ptr noundef %2, ptr noundef %4) #6
  %.not = icmp eq i32 %13, 0
  br i1 %.not, label %BN_nnmod.exit.thread25, label %14

14:                                               ; preds = %12, %10
  %15 = tail call i32 @BN_div(ptr noundef null, ptr noundef %0, ptr noundef nonnull %6, ptr noundef %3, ptr noundef %4)
  %.not.i = icmp eq i32 %15, 0
  br i1 %.not.i, label %BN_nnmod.exit.thread, label %16

16:                                               ; preds = %14
  %17 = getelementptr inbounds nuw i8, ptr %0, i64 16
  %18 = load i32, ptr %17, align 8, !tbaa !17
  %.not9.i = icmp eq i32 %18, 0
  br i1 %.not9.i, label %BN_nnmod.exit.thread25, label %BN_nnmod.exit

BN_nnmod.exit:                                    ; preds = %16
  %19 = getelementptr inbounds nuw i8, ptr %3, i64 16
  %20 = load i32, ptr %19, align 8, !tbaa !17
  %.not10.i = icmp eq i32 %20, 0
  %21 = select i1 %.not10.i, ptr @BN_add, ptr @BN_sub
  %22 = tail call i32 %21(ptr noundef nonnull %0, ptr noundef nonnull %0, ptr noundef %3) #6, !callees !22
  %.fr = freeze i32 %22
  %.not21 = icmp eq i32 %.fr, 0
  br i1 %.not21, label %BN_nnmod.exit.thread, label %BN_nnmod.exit.thread25

BN_nnmod.exit.thread:                             ; preds = %14, %BN_nnmod.exit
  br label %BN_nnmod.exit.thread25

BN_nnmod.exit.thread25:                           ; preds = %16, %BN_nnmod.exit.thread, %BN_nnmod.exit, %12, %10, %5
  %.0 = phi i32 [ 0, %5 ], [ 0, %10 ], [ 0, %12 ], [ 0, %BN_nnmod.exit.thread ], [ 1, %BN_nnmod.exit ], [ 1, %16 ]
  tail call void @BN_CTX_end(ptr noundef %4) #6
  ret i32 %.0
}